; ModuleID = '9/43.c'
source_filename = "9/43.c"
target datalayout = "e-m:e-p270:32:32-p271:32:32-p272:64:64-i64:64-f80:128-n8:16:32:64-S128"
target triple = "x86_64-pc-linux-gnu"

@.str = private unnamed_addr constant [3 x i8] c"%d\00", align 1
@.str.1 = private unnamed_addr constant [3 x i8] c"%s\00", align 1
@.str.2 = private unnamed_addr constant [4 x i8] c"%s\0A\00", align 1

; Function Attrs: noinline nounwind uwtable
define dso_local i32 @main() #0 {
  %1 = alloca i32, align 4
  %2 = alloca [100 x i32], align 16
  %3 = alloca [100 x i32], align 16
  %4 = alloca [100 x [11 x i8]], align 16
  %5 = alloca [100 x [11 x i8]], align 16
  %6 = alloca [100 x [11 x i8]], align 16
  %7 = alloca i32, align 4
  %8 = alloca i32, align 4
  %9 = alloca i32, align 4
  %10 = alloca i32, align 4
  %11 = alloca i32, align 4
  %12 = alloca i32, align 4
  %13 = alloca i32, align 4
  store i32 0, i32* %1, align 4
  store i32 0, i32* %10, align 4
  store i32 0, i32* %13, align 4
  %14 = call i32 (i8*, ...) @__isoc99_scanf(i8* getelementptr inbounds ([3 x i8], [3 x i8]* @.str, i64 0, i64 0), i32* %7)
  store i32 0, i32* %8, align 4
  br label %15

15:                                               ; preds = %29, %0
  %16 = load i32, i32* %8, align 4
  %17 = load i32, i32* %7, align 4
  %18 = icmp slt i32 %16, %17
  br i1 %18, label %19, label %32

19:                                               ; preds = %15
  %20 = load i32, i32* %8, align 4
  %21 = sext i32 %20 to i64
  %22 = getelementptr inbounds [100 x [11 x i8]], [100 x [11 x i8]]* %4, i64 0, i64 %21
  %23 = getelementptr inbounds [11 x i8], [11 x i8]* %22, i64 0, i64 0
  %24 = call i32 (i8*, ...) @__isoc99_scanf(i8* getelementptr inbounds ([3 x i8], [3 x i8]* @.str.1, i64 0, i64 0), i8* %23)
  %25 = load i32, i32* %8, align 4
  %26 = sext i32 %25 to i64
  %27 = getelementptr inbounds [100 x i32], [100 x i32]* %2, i64 0, i64 %26
  %28 = call i32 (i8*, ...) @__isoc99_scanf(i8* getelementptr inbounds ([3 x i8], [3 x i8]* @.str, i64 0, i64 0), i32* %27)
  br label %29

29:                                               ; preds = %19
  %30 = load i32, i32* %8, align 4
  %31 = add nsw i32 %30, 1
  store i32 %31, i32* %8, align 4
  br label %15

32:                                               ; preds = %15
  store i32 0, i32* %8, align 4
  br label %33

33:                                               ; preds = %63, %32
  %34 = load i32, i32* %8, align 4
  %35 = load i32, i32* %7, align 4
  %36 = icmp slt i32 %34, %35
  br i1 %36, label %37, label %66

37:                                               ; preds = %33
  %38 = load i32, i32* %8, align 4
  %39 = sext i32 %38 to i64
  %40 = getelementptr inbounds [100 x i32], [100 x i32]* %2, i64 0, i64 %39
  %41 = load i32, i32* %40, align 4
  %42 = icmp sge i32 %41, 60
  br i1 %42, label %43, label %62

43:                                               ; preds = %37
  %44 = load i32, i32* %8, align 4
  %45 = sext i32 %44 to i64
  %46 = getelementptr inbounds [100 x i32], [100 x i32]* %2, i64 0, i64 %45
  %47 = load i32, i32* %46, align 4
  %48 = load i32, i32* %10, align 4
  %49 = sext i32 %48 to i64
  %50 = getelementptr inbounds [100 x i32], [100 x i32]* %3, i64 0, i64 %49
  store i32 %47, i32* %50, align 4
  %51 = load i32, i32* %10, align 4
  %52 = sext i32 %51 to i64
  %53 = getelementptr inbounds [100 x [11 x i8]], [100 x [11 x i8]]* %5, i64 0, i64 %52
  %54 = getelementptr inbounds [11 x i8], [11 x i8]* %53, i64 0, i64 0
  %55 = load i32, i32* %8, align 4
  %56 = sext i32 %55 to i64
  %57 = getelementptr inbounds [100 x [11 x i8]], [100 x [11 x i8]]* %4, i64 0, i64 %56
  %58 = getelementptr inbounds [11 x i8], [11 x i8]* %57, i64 0, i64 0
  %59 = call i8* @strcpy(i8* %54, i8* %58) #3
  %60 = load i32, i32* %10, align 4
  %61 = add nsw i32 %60, 1
  store i32 %61, i32* %10, align 4
  br label %62

62:                                               ; preds = %43, %37
  br label %63

63:                                               ; preds = %62
  %64 = load i32, i32* %8, align 4
  %65 = add nsw i32 %64, 1
  store i32 %65, i32* %8, align 4
  br label %33

66:                                               ; preds = %33
  store i32 1, i32* %11, align 4
  br label %67

67:                                               ; preds = %141, %66
  %68 = load i32, i32* %11, align 4
  %69 = load i32, i32* %10, align 4
  %70 = icmp slt i32 %68, %69
  br i1 %70, label %71, label %144

71:                                               ; preds = %67
  store i32 0, i32* %9, align 4
  br label %72

72:                                               ; preds = %137, %71
  %73 = load i32, i32* %9, align 4
  %74 = load i32, i32* %10, align 4
  %75 = load i32, i32* %11, align 4
  %76 = sub nsw i32 %74, %75
  %77 = icmp slt i32 %73, %76
  br i1 %77, label %78, label %140

78:                                               ; preds = %72
  %79 = load i32, i32* %9, align 4
  %80 = sext i32 %79 to i64
  %81 = getelementptr inbounds [100 x i32], [100 x i32]* %3, i64 0, i64 %80
  %82 = load i32, i32* %81, align 4
  %83 = load i32, i32* %9, align 4
  %84 = add nsw i32 %83, 1
  %85 = sext i32 %84 to i64
  %86 = getelementptr inbounds [100 x i32], [100 x i32]* %3, i64 0, i64 %85
  %87 = load i32, i32* %86, align 4
  %88 = icmp slt i32 %82, %87
  br i1 %88, label %89, label %136

89:                                               ; preds = %78
  %90 = load i32, i32* %9, align 4
  %91 = add nsw i32 %90, 1
  %92 = sext i32 %91 to i64
  %93 = getelementptr inbounds [100 x i32], [100 x i32]* %3, i64 0, i64 %92
  %94 = load i32, i32* %93, align 4
  store i32 %94, i32* %13, align 4
  %95 = load i32, i32* %9, align 4
  %96 = sext i32 %95 to i64
  %97 = getelementptr inbounds [100 x i32], [100 x i32]* %3, i64 0, i64 %96
  %98 = load i32, i32* %97, align 4
  %99 = load i32, i32* %9, align 4
  %100 = add nsw i32 %99, 1
  %101 = sext i32 %100 to i64
  %102 = getelementptr inbounds [100 x i32], [100 x i32]* %3, i64 0, i64 %101
  store i32 %98, i32* %102, align 4
  %103 = load i32, i32* %13, align 4
  %104 = load i32, i32* %9, align 4
  %105 = sext i32 %104 to i64
  %106 = getelementptr inbounds [100 x i32], [100 x i32]* %3, i64 0, i64 %105
  store i32 %103, i32* %106, align 4
  %107 = load i32, i32* %9, align 4
  %108 = sext i32 %107 to i64
  %109 = getelementptr inbounds [100 x [11 x i8]], [100 x [11 x i8]]* %6, i64 0, i64 %108
  %110 = getelementptr inbounds [11 x i8], [11 x i8]* %109, i64 0, i64 0
  %111 = load i32, i32* %9, align 4
  %112 = add nsw i32 %111, 1
  %113 = sext i32 %112 to i64
  %114 = getelementptr inbounds [100 x [11 x i8]], [100 x [11 x i8]]* %5, i64 0, i64 %113
  %115 = getelementptr inbounds [11 x i8], [11 x i8]* %114, i64 0, i64 0
  %116 = call i8* @strcpy(i8* %110, i8* %115) #3
  %117 = load i32, i32* %9, align 4
  %118 = add nsw i32 %117, 1
  %119 = sext i32 %118 to i64
  %120 = getelementptr inbounds [100 x [11 x i8]], [100 x [11 x i8]]* %5, i64 0, i64 %119
  %121 = getelementptr inbounds [11 x i8], [11 x i8]* %120, i64 0, i64 0
  %122 = load i32, i32* %9, align 4
  %123 = sext i32 %122 to i64
  %124 = getelementptr inbounds [100 x [11 x i8]], [100 x [11 x i8]]* %5, i64 0, i64 %123
  %125 = getelementptr inbounds [11 x i8], [11 x i8]* %124, i64 0, i64 0
  %126 = call i8* @strcpy(i8* %121, i8* %125) #3
  %127 = load i32, i32* %9, align 4
  %128 = sext i32 %127 to i64
  %129 = getelementptr inbounds [100 x [11 x i8]], [100 x [11 x i8]]* %5, i64 0, i64 %128
  %130 = getelementptr inbounds [11 x i8], [11 x i8]* %129, i64 0, i64 0
  %131 = load i32, i32* %9, align 4
  %132 = sext i32 %131 to i64
  %133 = getelementptr inbounds [100 x [11 x i8]], [100 x [11 x i8]]* %6, i64 0, i64 %132
  %134 = getelementptr inbounds [11 x i8], [11 x i8]* %133, i64 0, i64 0
  %135 = call i8* @strcpy(i8* %130, i8* %134) #3
  br label %136

136:                                              ; preds = %89, %78
  br label %137

137:                                              ; preds = %136
  %138 = load i32, i32* %9, align 4
  %139 = add nsw i32 %138, 1
  store i32 %139, i32* %9, align 4
  br label %72

140:                                              ; preds = %72
  br label %141

141:                                              ; preds = %140
  %142 = load i32, i32* %11, align 4
  %143 = add nsw i32 %142, 1
  store i32 %143, i32* %11, align 4
  br label %67

144:                                              ; preds = %67
  store i32 0, i32* %12, align 4
  br label %145

145:                                              ; preds = %155, %144
  %146 = load i32, i32* %12, align 4
  %147 = load i32, i32* %10, align 4
  %148 = icmp slt i32 %146, %147
  br i1 %148, label %149, label %158

149:                                              ; preds = %145
  %150 = load i32, i32* %12, align 4
  %151 = sext i32 %150 to i64
  %152 = getelementptr inbounds [100 x [11 x i8]], [100 x [11 x i8]]* %5, i64 0, i64 %151
  %153 = getelementptr inbounds [11 x i8], [11 x i8]* %152, i64 0, i64 0
  %154 = call i32 (i8*, ...) @printf(i8* getelementptr inbounds ([4 x i8], [4 x i8]* @.str.2, i64 0, i64 0), i8* %153)
  br label %155

155:                                              ; preds = %149
  %156 = load i32, i32* %12, align 4
  %157 = add nsw i32 %156, 1
  store i32 %157, i32* %12, align 4
  br label %145

158:                                              ; preds = %145
  store i32 0, i32* %8, align 4
  br label %159

159:                                              ; preds = %176, %158
  %160 = load i32, i32* %8, align 4
  %161 = load i32, i32* %7, align 4
  %162 = icmp slt i32 %160, %161
  br i1 %162, label %163, label %179

163:                                              ; preds = %159
  %164 = load i32, i32* %8, align 4
  %165 = sext i32 %164 to i64
  %166 = getelementptr inbounds [100 x i32], [100 x i32]* %2, i64 0, i64 %165
  %167 = load i32, i32* %166, align 4
  %168 = icmp slt i32 %167, 60
  br i1 %168, label %169, label %175

169:                                              ; preds = %163
  %170 = load i32, i32* %8, align 4
  %171 = sext i32 %170 to i64
  %172 = getelementptr inbounds [100 x [11 x i8]], [100 x [11 x i8]]* %4, i64 0, i64 %171
  %173 = getelementptr inbounds [11 x i8], [11 x i8]* %172, i64 0, i64 0
  %174 = call i32 (i8*, ...) @printf(i8* getelementptr inbounds ([4 x i8], [4 x i8]* @.str.2, i64 0, i64 0), i8* %173)
  br label %175

175:                                              ; preds = %169, %163
  br label %176

176:                                              ; preds = %175
  %177 = load i32, i32* %8, align 4
  %178 = add nsw i32 %177, 1
  store i32 %178, i32* %8, align 4
  br label %159

179:                                              ; preds = %159
  ret i32 0
}

declare dso_local i32 @__isoc99_scanf(i8*, ...) #1

; Function Attrs: nounwind
declare dso_local i8* @strcpy(i8*, i8*) #2

declare dso_local i32 @printf(i8*, ...) #1


!llvm.module.flags = !{!0}
!llvm.ident = !{!1}

!0 = !{i32 1, !"wchar_size", i32 4}
!1 = !{!"clang version 10.0.0-4ubuntu1 "}
